; Function Attrs: nounwind uwtable
define i32 @EVP_PKEY_set_octet_string_param(ptr noundef captures(address_is_null) %0, ptr noundef %1, ptr noundef %2, i64 noundef %3) local_unnamed_addr #0 {
  %5 = alloca [2 x %struct.ossl_param_st], align 16
  %6 = alloca %struct.ossl_param_st, align 8
  call void @llvm.lifetime.start.p0(i64 80, ptr nonnull %5) #12
  %7 = icmp eq ptr %1, null
  br i1 %7, label %EVP_PKEY_set_params.exit, label %8

8:                                                ; preds = %4
  call void @OSSL_PARAM_construct_octet_string(ptr dead_on_unwind nonnull writable sret(%struct.ossl_param_st) align 8 %5, ptr noundef nonnull %1, ptr noundef %2, i64 noundef %3) #12
  %9 = getelementptr inbounds nuw i8, ptr %5, i64 40
  call void @llvm.lifetime.start.p0(i64 40, ptr nonnull %6) #12
  call void @OSSL_PARAM_construct_end(ptr dead_on_unwind nonnull writable sret(%struct.ossl_param_st) align 8 %6) #12
  call void @llvm.memcpy.p0.p0.i64(ptr noundef nonnull align 8 dereferenceable(40) %9, ptr noundef nonnull align 8 dereferenceable(40) %6, i64 40, i1 false), !tbaa.struct !73
  call void @llvm.lifetime.end.p0(i64 40, ptr nonnull %6) #12
  %.not.i = icmp eq ptr %0, null
  br i1 %.not.i, label %20, label %10

10:                                               ; preds = %8
  %11 = getelementptr inbounds nuw i8, ptr %0, i64 96
  %12 = load ptr, ptr %11, align 8, !tbaa !30
  %.not7.i = icmp eq ptr %12, null
  br i1 %.not7.i, label %20, label %13

13:                                               ; preds = %10
  %14 = getelementptr inbounds nuw i8, ptr %0, i64 112
  %15 = load i64, ptr %14, align 8, !tbaa !95
  %16 = add i64 %15, 1
  store i64 %16, ptr %14, align 8, !tbaa !95
  %17 = getelementptr inbounds nuw i8, ptr %0, i64 104
  %18 = load ptr, ptr %17, align 8, !tbaa !33
  %19 = call i32 @evp_keymgmt_set_params(ptr noundef nonnull %12, ptr noundef %18, ptr noundef nonnull %5) #12
  br label %EVP_PKEY_set_params.exit

20:                                               ; preds = %10, %8
  call void @ERR_new() #12
  call void @ERR_set_debug(ptr noundef nonnull @.str, i32 noundef 2438, ptr noundef nonnull @__func__.EVP_PKEY_set_params) #12
  call void (i32, i32, ptr, ...) @ERR_set_error(i32 noundef 6, i32 noundef 163, ptr noundef null) #12
  br label %EVP_PKEY_set_params.exit

EVP_PKEY_set_params.exit:                         ; preds = %20, %13, %4
  %.0 = phi i32 [ 0, %4 ], [ %19, %13 ], [ 0, %20 ]
  call void @llvm.lifetime.end.p0(i64 80, ptr nonnull %5) #12
  ret i32 %.0
}